; Function Attrs: noinline nounwind uwtable
define internal fastcc void @mi_free_generic_local(ptr noundef %0, ptr noundef %1) unnamed_addr #7 {
  %3 = getelementptr i8, ptr %0, i64 14
  %.val = load i8, ptr %3, align 2
  %4 = and i8 %.val, 2
  %.not = icmp eq i8 %4, 0
  br i1 %.not, label %22, label %5

5:                                                ; preds = %2
  %6 = getelementptr inbounds nuw i8, ptr %0, i64 48
  %7 = load ptr, ptr %6, align 8, !tbaa !30
  %8 = ptrtoint ptr %1 to i64
  %9 = ptrtoint ptr %7 to i64
  %10 = sub i64 %8, %9
  %11 = getelementptr inbounds nuw i8, ptr %0, i64 34
  %12 = load i8, ptr %11, align 2, !tbaa !31
  %.not.i = icmp eq i8 %12, 0
  br i1 %.not.i, label %17, label %13, !prof !18

13:                                               ; preds = %5
  %14 = zext nneg i8 %12 to i64
  %notmask.i = shl nsw i64 -1, %14
  %15 = xor i64 %notmask.i, -1
  %16 = and i64 %10, %15
  br label %_mi_page_ptr_unalign.exit

17:                                               ; preds = %5
  %18 = getelementptr i8, ptr %0, i64 40
  %.val.i = load i64, ptr %18, align 8, !tbaa !22
  %19 = urem i64 %10, %.val.i
  br label %_mi_page_ptr_unalign.exit

_mi_page_ptr_unalign.exit:                        ; preds = %13, %17
  %.0.i = phi i64 [ %16, %13 ], [ %19, %17 ]
  %20 = sub i64 %8, %.0.i
  %21 = inttoptr i64 %20 to ptr
  br label %22

22:                                               ; preds = %2, %_mi_page_ptr_unalign.exit
  %23 = phi ptr [ %21, %_mi_page_ptr_unalign.exit ], [ %1, %2 ]
  %24 = getelementptr inbounds nuw i8, ptr %0, i64 24
  %25 = load ptr, ptr %24, align 8, !tbaa !25
  %26 = ptrtoint ptr %25 to i64
  store i64 %26, ptr %23, align 8, !tbaa !19
  store ptr %23, ptr %24, align 8, !tbaa !25
  %27 = getelementptr inbounds nuw i8, ptr %0, i64 32
  %28 = load i16, ptr %27, align 8, !tbaa !21
  %29 = add i16 %28, -1
  store i16 %29, ptr %27, align 8, !tbaa !21
  %30 = icmp eq i16 %29, 0
  br i1 %30, label %31, label %32, !prof !18

31:                                               ; preds = %22
  tail call void @_mi_page_retire(ptr noundef nonnull %0) #19
  br label %mi_free_block_local.exit

32:                                               ; preds = %22
  %.val.i9 = load i8, ptr %3, align 2
  %33 = and i8 %.val.i9, 1
  %.not.i10 = icmp eq i8 %33, 0
  br i1 %.not.i10, label %mi_free_block_local.exit, label %34, !prof !8

34:                                               ; preds = %32
  tail call void @_mi_page_unfull(ptr noundef nonnull %0) #19
  br label %mi_free_block_local.exit

mi_free_block_local.exit:                         ; preds = %31, %32, %34
  ret void
}